target datalayout = "e-m:e-p270:32:32-p271:32:32-p272:64:64-i64:64-f80:128-n8:16:32:64-S128"
target triple = "x86_64-pc-linux-gnu"

%struct.student = type { i32, i32, i32, i32, %struct.student* }

@.str = private unnamed_addr constant [3 x i8] c"%d\00", align 1
@n = common dso_local global i32 0, align 4
@.str.1 = private unnamed_addr constant [9 x i8] c"%d %d %d\00", align 1
@.str.2 = private unnamed_addr constant [7 x i8] c"%d %d\0A\00", align 1

; Function Attrs: noinline nounwind uwtable
define dso_local void @main() #0 {
  %1 = alloca i32, align 4
  %2 = alloca i32, align 4
  %3 = alloca i32, align 4
  %4 = alloca %struct.student*, align 8
  %5 = alloca %struct.student*, align 8
  %6 = alloca %struct.student*, align 8
  %7 = alloca %struct.student*, align 8
  %8 = alloca %struct.student*, align 8
  %9 = call i32 (i8*, ...) @__isoc99_scanf(i8* getelementptr inbounds ([3 x i8], [3 x i8]* @.str, i64 0, i64 0), i32* @n)
  store i32 0, i32* %3, align 4
  %10 = call noalias i8* @malloc(i64 100) #3
  %11 = bitcast i8* %10 to %struct.student*
  store %struct.student* %11, %struct.student** %6, align 8
  store %struct.student* %11, %struct.student** %5, align 8
  %12 = load %struct.student*, %struct.student** %5, align 8
  %13 = getelementptr inbounds %struct.student, %struct.student* %12, i32 0, i32 0
  %14 = load %struct.student*, %struct.student** %5, align 8
  %15 = getelementptr inbounds %struct.student, %struct.student* %14, i32 0, i32 1
  %16 = load %struct.student*, %struct.student** %5, align 8
  %17 = getelementptr inbounds %struct.student, %struct.student* %16, i32 0, i32 2
  %18 = call i32 (i8*, ...) @__isoc99_scanf(i8* getelementptr inbounds ([9 x i8], [9 x i8]* @.str.1, i64 0, i64 0), i32* %13, i32* %15, i32* %17)
  %19 = load %struct.student*, %struct.student** %5, align 8
  %20 = getelementptr inbounds %struct.student, %struct.student* %19, i32 0, i32 1
  %21 = load i32, i32* %20, align 4
  %22 = load %struct.student*, %struct.student** %5, align 8
  %23 = getelementptr inbounds %struct.student, %struct.student* %22, i32 0, i32 2
  %24 = load i32, i32* %23, align 8
  %25 = add nsw i32 %21, %24
  %26 = load %struct.student*, %struct.student** %5, align 8
  %27 = getelementptr inbounds %struct.student, %struct.student* %26, i32 0, i32 3
  store i32 %25, i32* %27, align 4
  %28 = load %struct.student*, %struct.student** %5, align 8
  store %struct.student* %28, %struct.student** %4, align 8
  br label %29

29:                                               ; preds = %34, %0
  %30 = load i32, i32* %3, align 4
  %31 = load i32, i32* @n, align 4
  %32 = sub nsw i32 %31, 1
  %33 = icmp slt i32 %30, %32
  br i1 %33, label %34, label %59

34:                                               ; preds = %29
  %35 = load i32, i32* %3, align 4
  %36 = add nsw i32 %35, 1
  store i32 %36, i32* %3, align 4
  %37 = call noalias i8* @malloc(i64 100) #3
  %38 = bitcast i8* %37 to %struct.student*
  store %struct.student* %38, %struct.student** %5, align 8
  %39 = load %struct.student*, %struct.student** %5, align 8
  %40 = getelementptr inbounds %struct.student, %struct.student* %39, i32 0, i32 0
  %41 = load %struct.student*, %struct.student** %5, align 8
  %42 = getelementptr inbounds %struct.student, %struct.student* %41, i32 0, i32 1
  %43 = load %struct.student*, %struct.student** %5, align 8
  %44 = getelementptr inbounds %struct.student, %struct.student* %43, i32 0, i32 2
  %45 = call i32 (i8*, ...) @__isoc99_scanf(i8* getelementptr inbounds ([9 x i8], [9 x i8]* @.str.1, i64 0, i64 0), i32* %40, i32* %42, i32* %44)
  %46 = load %struct.student*, %struct.student** %5, align 8
  %47 = getelementptr inbounds %struct.student, %struct.student* %46, i32 0, i32 1
  %48 = load i32, i32* %47, align 4
  %49 = load %struct.student*, %struct.student** %5, align 8
  %50 = getelementptr inbounds %struct.student, %struct.student* %49, i32 0, i32 2
  %51 = load i32, i32* %50, align 8
  %52 = add nsw i32 %48, %51
  %53 = load %struct.student*, %struct.student** %5, align 8
  %54 = getelementptr inbounds %struct.student, %struct.student* %53, i32 0, i32 3
  store i32 %52, i32* %54, align 4
  %55 = load %struct.student*, %struct.student** %5, align 8
  %56 = load %struct.student*, %struct.student** %6, align 8
  %57 = getelementptr inbounds %struct.student, %struct.student* %56, i32 0, i32 4
  store %struct.student* %55, %struct.student** %57, align 8
  %58 = load %struct.student*, %struct.student** %5, align 8
  store %struct.student* %58, %struct.student** %6, align 8
  br label %29

59:                                               ; preds = %29
  %60 = load %struct.student*, %struct.student** %6, align 8
  %61 = getelementptr inbounds %struct.student, %struct.student* %60, i32 0, i32 4
  store %struct.student* null, %struct.student** %61, align 8
  store i32 0, i32* %1, align 4
  br label %62

62:                                               ; preds = %121, %59
  %63 = load i32, i32* %1, align 4
  %64 = icmp slt i32 %63, 3
  br i1 %64, label %65, label %124

65:                                               ; preds = %62
  %66 = load %struct.student*, %struct.student** %4, align 8
  store %struct.student* %66, %struct.student** %7, align 8
  %67 = load %struct.student*, %struct.student** %4, align 8
  store %struct.student* %67, %struct.student** %6, align 8
  store %struct.student* %67, %struct.student** %8, align 8
  %68 = load %struct.student*, %struct.student** %6, align 8
  store %struct.student* %68, %struct.student** %5, align 8
  store i32 0, i32* %2, align 4
  br label %69

69:                                               ; preds = %91, %65
  %70 = load i32, i32* %2, align 4
  %71 = load i32, i32* @n, align 4
  %72 = load i32, i32* %1, align 4
  %73 = sub nsw i32 %71, %72
  %74 = icmp slt i32 %70, %73
  br i1 %74, label %75, label %94

75:                                               ; preds = %69
  %76 = load %struct.student*, %struct.student** %5, align 8
  %77 = getelementptr inbounds %struct.student, %struct.student* %76, i32 0, i32 3
  %78 = load i32, i32* %77, align 4
  %79 = load %struct.student*, %struct.student** %7, align 8
  %80 = getelementptr inbounds %struct.student, %struct.student* %79, i32 0, i32 3
  %81 = load i32, i32* %80, align 4
  %82 = icmp sgt i32 %78, %81
  br i1 %82, label %83, label %86

83:                                               ; preds = %75
  %84 = load %struct.student*, %struct.student** %5, align 8
  store %struct.student* %84, %struct.student** %7, align 8
  %85 = load %struct.student*, %struct.student** %6, align 8
  store %struct.student* %85, %struct.student** %8, align 8
  br label %86

86:                                               ; preds = %83, %75
  %87 = load %struct.student*, %struct.student** %5, align 8
  store %struct.student* %87, %struct.student** %6, align 8
  %88 = load %struct.student*, %struct.student** %6, align 8
  %89 = getelementptr inbounds %struct.student, %struct.student* %88, i32 0, i32 4
  %90 = load %struct.student*, %struct.student** %89, align 8
  store %struct.student* %90, %struct.student** %5, align 8
  br label %91

91:                                               ; preds = %86
  %92 = load i32, i32* %2, align 4
  %93 = add nsw i32 %92, 1
  store i32 %93, i32* %2, align 4
  br label %69

94:                                               ; preds = %69
  %95 = load %struct.student*, %struct.student** %4, align 8
  store %struct.student* %95, %struct.student** %6, align 8
  store %struct.student* %95, %struct.student** %5, align 8
  %96 = load %struct.student*, %struct.student** %7, align 8
  %97 = getelementptr inbounds %struct.student, %struct.student* %96, i32 0, i32 0
  %98 = load i32, i32* %97, align 8
  %99 = load %struct.student*, %struct.student** %7, align 8
  %100 = getelementptr inbounds %struct.student, %struct.student* %99, i32 0, i32 3
  %101 = load i32, i32* %100, align 4
  %102 = call i32 (i8*, ...) @printf(i8* getelementptr inbounds ([7 x i8], [7 x i8]* @.str.2, i64 0, i64 0), i32 %98, i32 %101)
  %103 = load %struct.student*, %struct.student** %7, align 8
  %104 = getelementptr inbounds %struct.student, %struct.student* %103, i32 0, i32 0
  %105 = load i32, i32* %104, align 8
  %106 = load %struct.student*, %struct.student** %4, align 8
  %107 = getelementptr inbounds %struct.student, %struct.student* %106, i32 0, i32 0
  %108 = load i32, i32* %107, align 8
  %109 = icmp eq i32 %105, %108
  br i1 %109, label %110, label %114

110:                                              ; preds = %94
  %111 = load %struct.student*, %struct.student** %5, align 8
  %112 = getelementptr inbounds %struct.student, %struct.student* %111, i32 0, i32 4
  %113 = load %struct.student*, %struct.student** %112, align 8
  store %struct.student* %113, %struct.student** %4, align 8
  br label %120

114:                                              ; preds = %94
  %115 = load %struct.student*, %struct.student** %7, align 8
  %116 = getelementptr inbounds %struct.student, %struct.student* %115, i32 0, i32 4
  %117 = load %struct.student*, %struct.student** %116, align 8
  %118 = load %struct.student*, %struct.student** %8, align 8
  %119 = getelementptr inbounds %struct.student, %struct.student* %118, i32 0, i32 4
  store %struct.student* %117, %struct.student** %119, align 8
  br label %120

120:                                              ; preds = %114, %110
  br label %121

121:                                              ; preds = %120
  %122 = load i32, i32* %1, align 4
  %123 = add nsw i32 %122, 1
  store i32 %123, i32* %1, align 4
  br label %62

124:                                              ; preds = %62
  ret void
}